target datalayout = "e-m:e-p270:32:32-p271:32:32-p272:64:64-i64:64-i128:128-f80:128-n8:16:32:64-S128"
target triple = "x86_64-pc-linux-gnu"

%struct.mi_heap_s = type { ptr, ptr, i64, i32, i64, [2 x i64], %struct.mi_random_cxt_s, i64, i64, i64, ptr, i8, i8, [129 x ptr], [75 x %struct.mi_page_queue_s] }
%struct.mi_random_cxt_s = type { [16 x i32], [16 x i32], i32, i8 }
%struct.mi_page_queue_s = type { ptr, ptr, i64 }

; Function Attrs: nounwind uwtable
define hidden ptr @_mi_segment_page_alloc(ptr noundef %0, i64 noundef %1, i64 noundef %2, ptr noundef %3) #0 {
  %5 = alloca ptr, align 8
  %6 = alloca i64, align 8
  %7 = alloca i64, align 8
  %8 = alloca ptr, align 8
  %9 = alloca ptr, align 8
  store ptr %0, ptr %5, align 8, !tbaa !63
  store i64 %1, ptr %6, align 8, !tbaa !8
  store i64 %2, ptr %7, align 8, !tbaa !8
  store ptr %3, ptr %8, align 8, !tbaa !44
  call void @llvm.lifetime.start.p0(i64 8, ptr %9) #8
  %10 = load i64, ptr %7, align 8, !tbaa !8
  %11 = icmp ugt i64 %10, 16777216
  %12 = xor i1 %11, true
  %13 = xor i1 %12, true
  %14 = zext i1 %13 to i32
  %15 = sext i32 %14 to i64
  %16 = call i64 @llvm.expect.i64(i64 %15, i64 0)
  %17 = icmp ne i64 %16, 0
  br i1 %17, label %18, label %30

18:                                               ; preds = %4
  %19 = load i64, ptr %7, align 8, !tbaa !8
  %20 = icmp ult i64 %19, 33554432
  br i1 %20, label %21, label %22

21:                                               ; preds = %18
  store i64 33554432, ptr %7, align 8, !tbaa !8
  br label %22

22:                                               ; preds = %21, %18
  %23 = load i64, ptr %6, align 8, !tbaa !8
  %24 = load i64, ptr %7, align 8, !tbaa !8
  %25 = load ptr, ptr %5, align 8, !tbaa !63
  %26 = getelementptr inbounds nuw %struct.mi_heap_s, ptr %25, i32 0, i32 3
  %27 = load i32, ptr %26, align 8, !tbaa !94
  %28 = load ptr, ptr %8, align 8, !tbaa !44
  %29 = call ptr @mi_segment_huge_page_alloc(i64 noundef %23, i64 noundef %24, i32 noundef %27, ptr noundef %28) #9
  store ptr %29, ptr %9, align 8, !tbaa !21
  br label %67

30:                                               ; preds = %4
  %31 = load i64, ptr %6, align 8, !tbaa !8
  %32 = icmp ule i64 %31, 16384
  br i1 %32, label %33, label %39

33:                                               ; preds = %30
  %34 = load ptr, ptr %5, align 8, !tbaa !63
  %35 = load i64, ptr %6, align 8, !tbaa !8
  %36 = load i64, ptr %6, align 8, !tbaa !8
  %37 = load ptr, ptr %8, align 8, !tbaa !44
  %38 = call ptr @mi_segments_page_alloc(ptr noundef %34, i32 noundef 0, i64 noundef %35, i64 noundef %36, ptr noundef %37) #9
  store ptr %38, ptr %9, align 8, !tbaa !21
  br label %66

39:                                               ; preds = %30
  %40 = load i64, ptr %6, align 8, !tbaa !8
  %41 = icmp ule i64 %40, 131072
  br i1 %41, label %42, label %47

42:                                               ; preds = %39
  %43 = load ptr, ptr %5, align 8, !tbaa !63
  %44 = load i64, ptr %6, align 8, !tbaa !8
  %45 = load ptr, ptr %8, align 8, !tbaa !44
  %46 = call ptr @mi_segments_page_alloc(ptr noundef %43, i32 noundef 1, i64 noundef 524288, i64 noundef %44, ptr noundef %45) #9
  store ptr %46, ptr %9, align 8, !tbaa !21
  br label %65

47:                                               ; preds = %39
  %48 = load i64, ptr %6, align 8, !tbaa !8
  %49 = icmp ule i64 %48, 16777216
  br i1 %49, label %50, label %56

50:                                               ; preds = %47
  %51 = load ptr, ptr %5, align 8, !tbaa !63
  %52 = load i64, ptr %6, align 8, !tbaa !8
  %53 = load i64, ptr %6, align 8, !tbaa !8
  %54 = load ptr, ptr %8, align 8, !tbaa !44
  %55 = call ptr @mi_segments_page_alloc(ptr noundef %51, i32 noundef 2, i64 noundef %52, i64 noundef %53, ptr noundef %54) #9
  store ptr %55, ptr %9, align 8, !tbaa !21
  br label %64

56:                                               ; preds = %47
  %57 = load i64, ptr %6, align 8, !tbaa !8
  %58 = load i64, ptr %7, align 8, !tbaa !8
  %59 = load ptr, ptr %5, align 8, !tbaa !63
  %60 = getelementptr inbounds nuw %struct.mi_heap_s, ptr %59, i32 0, i32 3
  %61 = load i32, ptr %60, align 8, !tbaa !94
  %62 = load ptr, ptr %8, align 8, !tbaa !44
  %63 = call ptr @mi_segment_huge_page_alloc(i64 noundef %57, i64 noundef %58, i32 noundef %61, ptr noundef %62) #9
  store ptr %63, ptr %9, align 8, !tbaa !21
  br label %64

64:                                               ; preds = %56, %50
  br label %65

65:                                               ; preds = %64, %42
  br label %66

66:                                               ; preds = %65, %33
  br label %67

67:                                               ; preds = %66, %22
  %68 = load ptr, ptr %9, align 8, !tbaa !21
  call void @llvm.lifetime.end.p0(i64 8, ptr %9) #8
  ret ptr %68
}