; Function Attrs: nounwind uwtable
define hidden ptr @_mi_segment_page_alloc(ptr noundef %0, i64 noundef %1, i64 noundef %2, ptr noundef %3) local_unnamed_addr #4 {
  %5 = icmp ugt i64 %2, 16777216
  br i1 %5, label %6, label %10, !prof !94

6:                                                ; preds = %4
  %spec.store.select = tail call i64 @llvm.umax.i64(i64 %2, i64 33554432)
  %7 = getelementptr inbounds nuw i8, ptr %0, i64 24
  %8 = load i32, ptr %7, align 8, !tbaa !95
  %9 = tail call fastcc ptr @mi_segment_huge_page_alloc(i64 noundef %1, i64 noundef %spec.store.select, i32 noundef %8, ptr noundef %3) #10
  br label %26

10:                                               ; preds = %4
  %11 = icmp ult i64 %1, 16385
  br i1 %11, label %12, label %14

12:                                               ; preds = %10
  %13 = tail call fastcc ptr @mi_segments_page_alloc(ptr noundef %0, i64 noundef %1, i64 noundef %1, ptr noundef %3) #10
  br label %26

14:                                               ; preds = %10
  %15 = icmp ult i64 %1, 131073
  br i1 %15, label %16, label %18

16:                                               ; preds = %14
  %17 = tail call fastcc ptr @mi_segments_page_alloc(ptr noundef %0, i64 noundef 524288, i64 noundef %1, ptr noundef %3) #10
  br label %26

18:                                               ; preds = %14
  %19 = icmp ult i64 %1, 16777217
  br i1 %19, label %20, label %22

20:                                               ; preds = %18
  %21 = tail call fastcc ptr @mi_segments_page_alloc(ptr noundef %0, i64 noundef %1, i64 noundef %1, ptr noundef %3) #10
  br label %26

22:                                               ; preds = %18
  %23 = getelementptr inbounds nuw i8, ptr %0, i64 24
  %24 = load i32, ptr %23, align 8, !tbaa !95
  %25 = tail call fastcc ptr @mi_segment_huge_page_alloc(i64 noundef %1, i64 noundef %2, i32 noundef %24, ptr noundef %3) #10
  br label %26

26:                                               ; preds = %12, %20, %22, %16, %6
  %.0 = phi ptr [ %9, %6 ], [ %13, %12 ], [ %17, %16 ], [ %21, %20 ], [ %25, %22 ]
  ret ptr %.0
}